target datalayout = "e-m:e-p270:32:32-p271:32:32-p272:64:64-i64:64-i128:128-f80:128-n8:16:32:64-S128"
target triple = "x86_64-pc-linux-gnu"

%struct._lv_buttonmatrix_t = type { %struct._lv_obj_t, ptr, ptr, ptr, i32, i32, i32, i8 }
%struct._lv_obj_t = type { ptr, ptr, ptr, ptr, ptr, %struct.lv_area_t, i32, i16, i16 }
%struct.lv_area_t = type { i32, i32, i32, i32 }

; Function Attrs: nounwind uwtable
define void @lv_buttonmatrix_clear_button_ctrl(ptr noundef %0, i32 noundef %1, i32 noundef %2) #0 {
  %4 = alloca ptr, align 8
  %5 = alloca i32, align 4
  %6 = alloca i32, align 4
  %7 = alloca ptr, align 8
  %8 = alloca i32, align 4
  store ptr %0, ptr %4, align 8, !tbaa !3
  store i32 %1, ptr %5, align 4, !tbaa !18
  store i32 %2, ptr %6, align 4, !tbaa !18
  br label %9

9:                                                ; preds = %3
  br label %10

10:                                               ; preds = %9
  call void @llvm.lifetime.start.p0(i64 8, ptr %7) #4
  %11 = load ptr, ptr %4, align 8, !tbaa !3
  store ptr %11, ptr %7, align 8, !tbaa !3
  %12 = load i32, ptr %5, align 4, !tbaa !18
  %13 = load ptr, ptr %7, align 8, !tbaa !3
  %14 = getelementptr inbounds nuw %struct._lv_buttonmatrix_t, ptr %13, i32 0, i32 4
  %15 = load i32, ptr %14, align 8, !tbaa !7
  %16 = icmp uge i32 %12, %15
  br i1 %16, label %17, label %18

17:                                               ; preds = %10
  store i32 1, ptr %8, align 4
  br label %37

18:                                               ; preds = %10
  %19 = load i32, ptr %6, align 4, !tbaa !18
  %20 = xor i32 %19, -1
  %21 = load ptr, ptr %7, align 8, !tbaa !3
  %22 = getelementptr inbounds nuw %struct._lv_buttonmatrix_t, ptr %21, i32 0, i32 3
  %23 = load ptr, ptr %22, align 8, !tbaa !16
  %24 = load i32, ptr %5, align 4, !tbaa !18
  %25 = zext i32 %24 to i64
  %26 = getelementptr inbounds nuw i32, ptr %23, i64 %25
  %27 = load i32, ptr %26, align 4, !tbaa !18
  %28 = and i32 %27, %20
  store i32 %28, ptr %26, align 4, !tbaa !18
  %29 = load ptr, ptr %4, align 8, !tbaa !3
  %30 = load i32, ptr %5, align 4, !tbaa !18
  call void @invalidate_button_area(ptr noundef %29, i32 noundef %30)
  %31 = load i32, ptr %6, align 4, !tbaa !18
  %32 = and i32 %31, 1024
  %33 = icmp ne i32 %32, 0
  br i1 %33, label %34, label %36

34:                                               ; preds = %18
  %35 = load ptr, ptr %4, align 8, !tbaa !3
  call void @lv_obj_refresh_ext_draw_size(ptr noundef %35)
  br label %36

36:                                               ; preds = %34, %18
  store i32 0, ptr %8, align 4
  br label %37

37:                                               ; preds = %36, %17
  call void @llvm.lifetime.end.p0(i64 8, ptr %7) #4
  %38 = load i32, ptr %8, align 4
  switch i32 %38, label %40 [
    i32 0, label %39
    i32 1, label %39
  ]

39:                                               ; preds = %37, %37
  ret void

40:                                               ; preds = %37
  unreachable
}

; Function Attrs: nounwind uwtable
define void @lv_buttonmatrix_clear_button_ctrl_all(ptr noundef %0, i32 noundef %1) #0 {
  %3 = alloca ptr, align 8
  %4 = alloca i32, align 4
  %5 = alloca ptr, align 8
  %6 = alloca i32, align 4
  store ptr %0, ptr %3, align 8, !tbaa !3
  store i32 %1, ptr %4, align 4, !tbaa !18
  br label %7

7:                                                ; preds = %2
  br label %8

8:                                                ; preds = %7
  call void @llvm.lifetime.start.p0(i64 8, ptr %5) #4
  %9 = load ptr, ptr %3, align 8, !tbaa !3
  store ptr %9, ptr %5, align 8, !tbaa !3
  call void @llvm.lifetime.start.p0(i64 4, ptr %6) #4
  store i32 0, ptr %6, align 4, !tbaa !18
  br label %10

10:                                               ; preds = %20, %8
  %11 = load i32, ptr %6, align 4, !tbaa !18
  %12 = load ptr, ptr %5, align 8, !tbaa !3
  %13 = getelementptr inbounds nuw %struct._lv_buttonmatrix_t, ptr %12, i32 0, i32 4
  %14 = load i32, ptr %13, align 8, !tbaa !7
  %15 = icmp ult i32 %11, %14
  br i1 %15, label %16, label %23

16:                                               ; preds = %10
  %17 = load ptr, ptr %3, align 8, !tbaa !3
  %18 = load i32, ptr %6, align 4, !tbaa !18
  %19 = load i32, ptr %4, align 4, !tbaa !18
  call void @lv_buttonmatrix_clear_button_ctrl(ptr noundef %17, i32 noundef %18, i32 noundef %19)
  br label %20

20:                                               ; preds = %16
  %21 = load i32, ptr %6, align 4, !tbaa !18
  %22 = add i32 %21, 1
  store i32 %22, ptr %6, align 4, !tbaa !18
  br label %10, !llvm.loop !42

23:                                               ; preds = %10
  call void @llvm.lifetime.end.p0(i64 4, ptr %6) #4
  call void @llvm.lifetime.end.p0(i64 8, ptr %5) #4
  ret void
}

; Function Attrs: nounwind uwtable
define void @lv_buttonmatrix_set_button_ctrl(ptr noundef %0, i32 noundef %1, i32 noundef %2) #0 {
  %4 = alloca ptr, align 8
  %5 = alloca i32, align 4
  %6 = alloca i32, align 4
  %7 = alloca ptr, align 8
  %8 = alloca i32, align 4
  store ptr %0, ptr %4, align 8, !tbaa !3
  store i32 %1, ptr %5, align 4, !tbaa !18
  store i32 %2, ptr %6, align 4, !tbaa !18
  br label %9

9:                                                ; preds = %3
  br label %10

10:                                               ; preds = %9
  call void @llvm.lifetime.start.p0(i64 8, ptr %7) #4
  %11 = load ptr, ptr %4, align 8, !tbaa !3
  store ptr %11, ptr %7, align 8, !tbaa !3
  %12 = load i32, ptr %5, align 4, !tbaa !18
  %13 = load ptr, ptr %7, align 8, !tbaa !3
  %14 = getelementptr inbounds nuw %struct._lv_buttonmatrix_t, ptr %13, i32 0, i32 4
  %15 = load i32, ptr %14, align 8, !tbaa !7
  %16 = icmp uge i32 %12, %15
  br i1 %16, label %17, label %18

17:                                               ; preds = %10
  store i32 1, ptr %8, align 4
  br label %49

18:                                               ; preds = %10
  %19 = load ptr, ptr %7, align 8, !tbaa !3
  %20 = getelementptr inbounds nuw %struct._lv_buttonmatrix_t, ptr %19, i32 0, i32 7
  %21 = load i8, ptr %20, align 4
  %22 = and i8 %21, 1
  %23 = zext i8 %22 to i32
  %24 = icmp ne i32 %23, 0
  br i1 %24, label %25, label %31

25:                                               ; preds = %18
  %26 = load i32, ptr %6, align 4, !tbaa !18
  %27 = and i32 %26, 256
  %28 = icmp ne i32 %27, 0
  br i1 %28, label %29, label %31

29:                                               ; preds = %25
  %30 = load ptr, ptr %4, align 8, !tbaa !3
  call void @lv_buttonmatrix_clear_button_ctrl_all(ptr noundef %30, i32 noundef 256)
  br label %31

31:                                               ; preds = %29, %25, %18
  %32 = load i32, ptr %6, align 4, !tbaa !18
  %33 = load ptr, ptr %7, align 8, !tbaa !3
  %34 = getelementptr inbounds nuw %struct._lv_buttonmatrix_t, ptr %33, i32 0, i32 3
  %35 = load ptr, ptr %34, align 8, !tbaa !16
  %36 = load i32, ptr %5, align 4, !tbaa !18
  %37 = zext i32 %36 to i64
  %38 = getelementptr inbounds nuw i32, ptr %35, i64 %37
  %39 = load i32, ptr %38, align 4, !tbaa !18
  %40 = or i32 %39, %32
  store i32 %40, ptr %38, align 4, !tbaa !18
  %41 = load ptr, ptr %4, align 8, !tbaa !3
  %42 = load i32, ptr %5, align 4, !tbaa !18
  call void @invalidate_button_area(ptr noundef %41, i32 noundef %42)
  %43 = load i32, ptr %6, align 4, !tbaa !18
  %44 = and i32 %43, 1024
  %45 = icmp ne i32 %44, 0
  br i1 %45, label %46, label %48

46:                                               ; preds = %31
  %47 = load ptr, ptr %4, align 8, !tbaa !3
  call void @lv_obj_refresh_ext_draw_size(ptr noundef %47)
  br label %48

48:                                               ; preds = %46, %31
  store i32 0, ptr %8, align 4
  br label %49

49:                                               ; preds = %48, %17
  call void @llvm.lifetime.end.p0(i64 8, ptr %7) #4
  %50 = load i32, ptr %8, align 4
  switch i32 %50, label %52 [
    i32 0, label %51
    i32 1, label %51
  ]

51:                                               ; preds = %49, %49
  ret void

52:                                               ; preds = %49
  unreachable
}

; Function Attrs: nounwind uwtable
define void @lv_buttonmatrix_set_button_ctrl_all(ptr noundef %0, i32 noundef %1) #0 {
  %3 = alloca ptr, align 8
  %4 = alloca i32, align 4
  %5 = alloca ptr, align 8
  %6 = alloca i32, align 4
  store ptr %0, ptr %3, align 8, !tbaa !3
  store i32 %1, ptr %4, align 4, !tbaa !18
  br label %7

7:                                                ; preds = %2
  br label %8

8:                                                ; preds = %7
  call void @llvm.lifetime.start.p0(i64 8, ptr %5) #4
  %9 = load ptr, ptr %3, align 8, !tbaa !3
  store ptr %9, ptr %5, align 8, !tbaa !3
  call void @llvm.lifetime.start.p0(i64 4, ptr %6) #4
  store i32 0, ptr %6, align 4, !tbaa !18
  br label %10

10:                                               ; preds = %20, %8
  %11 = load i32, ptr %6, align 4, !tbaa !18
  %12 = load ptr, ptr %5, align 8, !tbaa !3
  %13 = getelementptr inbounds nuw %struct._lv_buttonmatrix_t, ptr %12, i32 0, i32 4
  %14 = load i32, ptr %13, align 8, !tbaa !7
  %15 = icmp ult i32 %11, %14
  br i1 %15, label %16, label %23

16:                                               ; preds = %10
  %17 = load ptr, ptr %3, align 8, !tbaa !3
  %18 = load i32, ptr %6, align 4, !tbaa !18
  %19 = load i32, ptr %4, align 4, !tbaa !18
  call void @lv_buttonmatrix_set_button_ctrl(ptr noundef %17, i32 noundef %18, i32 noundef %19)
  br label %20

20:                                               ; preds = %16
  %21 = load i32, ptr %6, align 4, !tbaa !18
  %22 = add i32 %21, 1
  store i32 %22, ptr %6, align 4, !tbaa !18
  br label %10, !llvm.loop !43

23:                                               ; preds = %10
  call void @llvm.lifetime.end.p0(i64 4, ptr %6) #4
  call void @llvm.lifetime.end.p0(i64 8, ptr %5) #4
  ret void
}