; Function Attrs: nounwind uwtable
define void @lv_buttonmatrix_set_button_ctrl_all(ptr noundef %0, i32 noundef %1) local_unnamed_addr #0 {
  %3 = alloca %struct.lv_area_t, align 4
  %4 = alloca %struct.lv_area_t, align 4
  %5 = getelementptr inbounds nuw i8, ptr %0, i64 88
  %6 = load i32, ptr %5, align 8, !tbaa !3
  %.not = icmp eq i32 %6, 0
  br i1 %.not, label %._crit_edge, label %.lr.ph

.lr.ph:                                           ; preds = %2
  %7 = getelementptr inbounds nuw i8, ptr %0, i64 100
  %8 = and i32 %1, 256
  %.not13.i = icmp eq i32 %8, 0
  %9 = getelementptr inbounds nuw i8, ptr %0, i64 80
  %10 = getelementptr inbounds nuw i8, ptr %0, i64 72
  %11 = getelementptr inbounds nuw i8, ptr %3, i64 4
  %12 = getelementptr inbounds nuw i8, ptr %3, i64 8
  %13 = getelementptr inbounds nuw i8, ptr %3, i64 12
  %14 = getelementptr inbounds nuw i8, ptr %4, i64 4
  %15 = getelementptr inbounds nuw i8, ptr %0, i64 96
  %16 = and i32 %1, 1024
  %.not14.i = icmp eq i32 %16, 0
  br i1 %.not13.i, label %.lr.ph.split.us, label %.lr.ph.split

.lr.ph.split.us:                                  ; preds = %.lr.ph
  br i1 %.not14.i, label %lv_buttonmatrix_clear_button_ctrl_all.exit.i.us.us, label %lv_buttonmatrix_clear_button_ctrl_all.exit.i.us

lv_buttonmatrix_clear_button_ctrl_all.exit.i.us.us: ; preds = %.lr.ph.split.us, %lv_buttonmatrix_clear_button_ctrl_all.exit.i.us.us
  %indvars.iv14 = phi i64 [ %indvars.iv.next15, %lv_buttonmatrix_clear_button_ctrl_all.exit.i.us.us ], [ 0, %.lr.ph.split.us ]
  %17 = load ptr, ptr %9, align 8, !tbaa !15
  %18 = getelementptr inbounds nuw i32, ptr %17, i64 %indvars.iv14
  %19 = load i32, ptr %18, align 4, !tbaa !21
  %20 = or i32 %19, %1
  store i32 %20, ptr %18, align 4, !tbaa !21
  %21 = trunc nuw i64 %indvars.iv14 to i32
  tail call fastcc void @invalidate_button_area(ptr noundef nonnull %0, i32 noundef %21)
  %indvars.iv.next15 = add nuw nsw i64 %indvars.iv14, 1
  %22 = load i32, ptr %5, align 8, !tbaa !3
  %23 = zext i32 %22 to i64
  %24 = icmp samesign ult i64 %indvars.iv.next15, %23
  br i1 %24, label %lv_buttonmatrix_clear_button_ctrl_all.exit.i.us.us, label %._crit_edge, !llvm.loop !39

lv_buttonmatrix_clear_button_ctrl_all.exit.i.us:  ; preds = %.lr.ph.split.us, %lv_buttonmatrix_clear_button_ctrl_all.exit.i.us
  %indvars.iv11 = phi i64 [ %indvars.iv.next12, %lv_buttonmatrix_clear_button_ctrl_all.exit.i.us ], [ 0, %.lr.ph.split.us ]
  %25 = load ptr, ptr %9, align 8, !tbaa !15
  %26 = getelementptr inbounds nuw i32, ptr %25, i64 %indvars.iv11
  %27 = load i32, ptr %26, align 4, !tbaa !21
  %28 = or i32 %27, %1
  store i32 %28, ptr %26, align 4, !tbaa !21
  %29 = trunc nuw i64 %indvars.iv11 to i32
  tail call fastcc void @invalidate_button_area(ptr noundef nonnull %0, i32 noundef %29)
  tail call void @lv_obj_refresh_ext_draw_size(ptr noundef nonnull %0) #7
  %indvars.iv.next12 = add nuw nsw i64 %indvars.iv11, 1
  %30 = load i32, ptr %5, align 8, !tbaa !3
  %31 = zext i32 %30 to i64
  %32 = icmp samesign ult i64 %indvars.iv.next12, %31
  br i1 %32, label %lv_buttonmatrix_clear_button_ctrl_all.exit.i.us, label %._crit_edge, !llvm.loop !39

.lr.ph.split:                                     ; preds = %.lr.ph, %lv_buttonmatrix_set_button_ctrl.exit
  %indvars.iv = phi i64 [ %indvars.iv.next, %lv_buttonmatrix_set_button_ctrl.exit ], [ 0, %.lr.ph ]
  %33 = load i8, ptr %7, align 4
  %34 = and i8 %33, 1
  %.not12.i = icmp eq i8 %34, 0
  br i1 %.not12.i, label %lv_buttonmatrix_clear_button_ctrl_all.exit.i, label %lv_buttonmatrix_clear_button_ctrl.exit.us.i.i

lv_buttonmatrix_clear_button_ctrl.exit.us.i.i:    ; preds = %.lr.ph.split, %invalidate_button_area.exit
  %indvars.iv9.i.i = phi i64 [ %indvars.iv.next10.i.i, %invalidate_button_area.exit ], [ 0, %.lr.ph.split ]
  %35 = load ptr, ptr %9, align 8, !tbaa !15
  %36 = getelementptr inbounds nuw i32, ptr %35, i64 %indvars.iv9.i.i
  %37 = load i32, ptr %36, align 4, !tbaa !21
  %38 = and i32 %37, -257
  store i32 %38, ptr %36, align 4, !tbaa !21
  %39 = trunc nuw i64 %indvars.iv9.i.i to i32
  %40 = icmp eq i64 %indvars.iv9.i.i, 65535
  %.pre17 = load i32, ptr %5, align 8, !tbaa !3
  br i1 %40, label %invalidate_button_area.exit, label %41

41:                                               ; preds = %lv_buttonmatrix_clear_button_ctrl.exit.us.i.i
  call void @llvm.lifetime.start.p0(i64 16, ptr nonnull %3) #7
  call void @llvm.lifetime.start.p0(i64 16, ptr nonnull %4) #7
  %.not.i6 = icmp ugt i32 %.pre17, %39
  br i1 %.not.i6, label %42, label %82

42:                                               ; preds = %41
  %43 = load ptr, ptr %10, align 8, !tbaa !14
  %44 = getelementptr inbounds nuw %struct.lv_area_t, ptr %43, i64 %indvars.iv9.i.i
  %45 = load i32, ptr %44, align 4, !tbaa !27
  %46 = getelementptr inbounds nuw i8, ptr %44, i64 4
  %47 = load i32, ptr %46, align 4, !tbaa !28
  %48 = getelementptr inbounds nuw i8, ptr %44, i64 8
  %49 = load i32, ptr %48, align 4, !tbaa !29
  %50 = getelementptr inbounds nuw i8, ptr %44, i64 12
  %51 = load i32, ptr %50, align 4, !tbaa !37
  call void @lv_obj_get_coords(ptr noundef nonnull %0, ptr noundef nonnull %4) #7
  %52 = call ptr @lv_obj_get_style_prop(ptr noundef nonnull %0, i32 noundef 0, i8 noundef zeroext 20) #7
  %53 = ptrtoint ptr %52 to i64
  %.sroa.0.0.extract.trunc.i.i = trunc i64 %53 to i32
  %54 = call ptr @lv_obj_get_style_prop(ptr noundef nonnull %0, i32 noundef 0, i8 noundef zeroext 21) #7
  %55 = ptrtoint ptr %54 to i64
  %.sroa.0.0.extract.trunc.i30.i = trunc i64 %55 to i32
  %56 = call ptr @lv_obj_get_display(ptr noundef nonnull %0) #7
  %57 = call i32 @lv_display_get_dpi(ptr noundef %56) #7
  %58 = sdiv i32 %57, 10
  %..i = call i32 @llvm.smax.i32(i32 %58, i32 %.sroa.0.0.extract.trunc.i.i)
  %59 = call i32 @llvm.smax.i32(i32 %58, i32 %.sroa.0.0.extract.trunc.i30.i)
  %60 = load i32, ptr %4, align 4, !tbaa !27
  %61 = add i32 %60, %45
  %62 = sub i32 %61, %..i
  store i32 %62, ptr %3, align 4, !tbaa !27
  %63 = load i32, ptr %14, align 4, !tbaa !28
  %64 = sub i32 %47, %59
  %65 = add i32 %64, %63
  store i32 %65, ptr %11, align 4, !tbaa !28
  %66 = add i32 %60, %49
  %67 = add i32 %66, %..i
  store i32 %67, ptr %12, align 4, !tbaa !29
  %68 = add i32 %59, %51
  %69 = add i32 %68, %63
  store i32 %69, ptr %13, align 4, !tbaa !37
  %70 = load i32, ptr %15, align 8, !tbaa !13
  %71 = icmp eq i32 %70, %39
  br i1 %71, label %72, label %81

72:                                               ; preds = %42
  %73 = load ptr, ptr %9, align 8, !tbaa !15
  %74 = getelementptr inbounds nuw i32, ptr %73, i64 %indvars.iv9.i.i
  %75 = load i32, ptr %74, align 4, !tbaa !21
  %76 = and i32 %75, 1024
  %.not29.i = icmp eq i32 %76, 0
  br i1 %.not29.i, label %81, label %77

77:                                               ; preds = %72
  %78 = call i32 @lv_area_get_height(ptr noundef nonnull %3) #7
  %79 = load i32, ptr %11, align 4, !tbaa !28
  %80 = sub nsw i32 %79, %78
  store i32 %80, ptr %11, align 4, !tbaa !28
  br label %81

81:                                               ; preds = %77, %72, %42
  call void @lv_obj_invalidate_area(ptr noundef nonnull %0, ptr noundef nonnull %3) #7
  %.pre.pre = load i32, ptr %5, align 8, !tbaa !3
  br label %82

82:                                               ; preds = %81, %41
  %.pre = phi i32 [ %.pre.pre, %81 ], [ %.pre17, %41 ]
  call void @llvm.lifetime.end.p0(i64 16, ptr nonnull %4) #7
  call void @llvm.lifetime.end.p0(i64 16, ptr nonnull %3) #7
  br label %invalidate_button_area.exit

invalidate_button_area.exit:                      ; preds = %lv_buttonmatrix_clear_button_ctrl.exit.us.i.i, %82
  %83 = phi i32 [ %.pre17, %lv_buttonmatrix_clear_button_ctrl.exit.us.i.i ], [ %.pre, %82 ]
  %indvars.iv.next10.i.i = add nuw nsw i64 %indvars.iv9.i.i, 1
  %84 = zext i32 %83 to i64
  %85 = icmp samesign ult i64 %indvars.iv.next10.i.i, %84
  br i1 %85, label %lv_buttonmatrix_clear_button_ctrl.exit.us.i.i, label %lv_buttonmatrix_clear_button_ctrl_all.exit.i, !llvm.loop !38

lv_buttonmatrix_clear_button_ctrl_all.exit.i:     ; preds = %invalidate_button_area.exit, %.lr.ph.split
  %86 = load ptr, ptr %9, align 8, !tbaa !15
  %87 = getelementptr inbounds nuw i32, ptr %86, i64 %indvars.iv
  %88 = load i32, ptr %87, align 4, !tbaa !21
  %89 = or i32 %88, %1
  store i32 %89, ptr %87, align 4, !tbaa !21
  %90 = trunc nuw i64 %indvars.iv to i32
  call fastcc void @invalidate_button_area(ptr noundef nonnull %0, i32 noundef %90)
  br i1 %.not14.i, label %lv_buttonmatrix_set_button_ctrl.exit, label %91

91:                                               ; preds = %lv_buttonmatrix_clear_button_ctrl_all.exit.i
  call void @lv_obj_refresh_ext_draw_size(ptr noundef nonnull %0) #7
  br label %lv_buttonmatrix_set_button_ctrl.exit

lv_buttonmatrix_set_button_ctrl.exit:             ; preds = %lv_buttonmatrix_clear_button_ctrl_all.exit.i, %91
  %indvars.iv.next = add nuw nsw i64 %indvars.iv, 1
  %92 = load i32, ptr %5, align 8, !tbaa !3
  %93 = zext i32 %92 to i64
  %94 = icmp samesign ult i64 %indvars.iv.next, %93
  br i1 %94, label %.lr.ph.split, label %._crit_edge, !llvm.loop !39

._crit_edge:                                      ; preds = %lv_buttonmatrix_set_button_ctrl.exit, %lv_buttonmatrix_clear_button_ctrl_all.exit.i.us, %lv_buttonmatrix_clear_button_ctrl_all.exit.i.us.us, %2
  ret void
}